; Function Attrs: mustprogress uwtable
define void @_ZN6google8protobuf20Base64EscapeInternalEPKhiPNSt7__cxx1112basic_stringIcSt11char_traitsIcESaIcEEEbPKc(ptr noundef %0, i32 noundef %1, ptr noundef %2, i1 noundef zeroext %3, ptr noundef readonly captures(none) %4) local_unnamed_addr #6 personality ptr @__gxx_personality_v0 {
  %6 = sdiv i32 %1, 3
  %7 = shl nsw i32 %6, 2
  %8 = srem i32 %1, 3
  switch i32 %8, label %12 [
    i32 0, label %_ZN6google8protobuf25CalculateBase64EscapedLenEib.exit
    i32 1, label %9
  ]

9:                                                ; preds = %5
  %10 = or disjoint i32 %7, 2
  %11 = add nsw i32 %7, 4
  %spec.select.i = select i1 %3, i32 %11, i32 %10
  br label %_ZN6google8protobuf25CalculateBase64EscapedLenEib.exit

12:                                               ; preds = %5
  %13 = or disjoint i32 %7, 3
  %14 = add nsw i32 %7, 4
  %spec.select11.i = select i1 %3, i32 %14, i32 %13
  br label %_ZN6google8protobuf25CalculateBase64EscapedLenEib.exit

_ZN6google8protobuf25CalculateBase64EscapedLenEib.exit: ; preds = %5, %9, %12
  %.0.i = phi i32 [ %7, %5 ], [ %spec.select.i, %9 ], [ %spec.select11.i, %12 ]
  %15 = sext i32 %.0.i to i64
  tail call void @_ZNSt7__cxx1112basic_stringIcSt11char_traitsIcESaIcEE6resizeEmc(ptr noundef nonnull align 8 dereferenceable(32) %2, i64 noundef %15, i8 noundef signext 0)
  %16 = getelementptr inbounds nuw i8, ptr %2, i64 8
  %17 = load i64, ptr %16, align 8, !tbaa !14
  %18 = icmp eq i64 %17, 0
  br i1 %18, label %_ZN6google8protobuf15string_as_arrayEPNSt7__cxx1112basic_stringIcSt11char_traitsIcESaIcEEE.exit, label %19

19:                                               ; preds = %_ZN6google8protobuf25CalculateBase64EscapedLenEib.exit
  %20 = load ptr, ptr %2, align 8, !tbaa !3
  br label %_ZN6google8protobuf15string_as_arrayEPNSt7__cxx1112basic_stringIcSt11char_traitsIcESaIcEEE.exit

_ZN6google8protobuf15string_as_arrayEPNSt7__cxx1112basic_stringIcSt11char_traitsIcESaIcEEE.exit: ; preds = %_ZN6google8protobuf25CalculateBase64EscapedLenEib.exit, %19
  %21 = phi ptr [ %20, %19 ], [ null, %_ZN6google8protobuf25CalculateBase64EscapedLenEib.exit ]
  %22 = trunc i64 %17 to i32
  %23 = tail call noundef i32 @_ZN6google8protobuf20Base64EscapeInternalEPKhiPciPKcb(ptr noundef %0, i32 noundef %1, ptr noundef %21, i32 noundef %22, ptr noundef %4, i1 noundef zeroext %3)
  %24 = sext i32 %23 to i64
  %25 = load i64, ptr %16, align 8, !tbaa !14
  %26 = icmp ult i64 %25, %24
  br i1 %26, label %27, label %_ZNSt7__cxx1112basic_stringIcSt11char_traitsIcESaIcEE5eraseEmm.exit

27:                                               ; preds = %_ZN6google8protobuf15string_as_arrayEPNSt7__cxx1112basic_stringIcSt11char_traitsIcESaIcEEE.exit
  tail call void (ptr, ...) @_ZSt24__throw_out_of_range_fmtPKcz(ptr noundef nonnull @.str.45, ptr noundef nonnull @.str.49, i64 noundef %24, i64 noundef %25) #30
  unreachable

_ZNSt7__cxx1112basic_stringIcSt11char_traitsIcESaIcEE5eraseEmm.exit: ; preds = %_ZN6google8protobuf15string_as_arrayEPNSt7__cxx1112basic_stringIcSt11char_traitsIcESaIcEEE.exit
  store i64 %24, ptr %16, align 8, !tbaa !14
  %28 = load ptr, ptr %2, align 8, !tbaa !3
  %29 = getelementptr inbounds nuw i8, ptr %28, i64 %24
  store i8 0, ptr %29, align 1, !tbaa !11
  ret void
}